target datalayout = "e-m:e-p270:32:32-p271:32:32-p272:64:64-i64:64-i128:128-f80:128-n8:16:32:64-S128"
target triple = "x86_64-pc-linux-gnu"

%"struct.OpenSubdiv::v3_6_0::Osd::BufferDescriptor" = type { i32, i32, i32 }

; Function Attrs: mustprogress nounwind uwtable
define linkonce_odr void @_ZN10OpenSubdiv6v3_6_03Osd16BufferDescriptorC2Ev(ptr noundef nonnull align 4 dereferenceable(12) %0) unnamed_addr #5 comdat align 2 {
  %2 = alloca ptr, align 8
  store ptr %0, ptr %2, align 8
  %3 = load ptr, ptr %2, align 8
  %4 = getelementptr inbounds nuw %"struct.OpenSubdiv::v3_6_0::Osd::BufferDescriptor", ptr %3, i32 0, i32 0
  store i32 0, ptr %4, align 4
  %5 = getelementptr inbounds nuw %"struct.OpenSubdiv::v3_6_0::Osd::BufferDescriptor", ptr %3, i32 0, i32 1
  store i32 0, ptr %5, align 4
  %6 = getelementptr inbounds nuw %"struct.OpenSubdiv::v3_6_0::Osd::BufferDescriptor", ptr %3, i32 0, i32 2
  store i32 0, ptr %6, align 4
  ret void
}

; Function Attrs: mustprogress uwtable
define noundef zeroext i1 @_ZN10OpenSubdiv6v3_6_03Osd12TbbEvaluator11EvalPatchesEPKfRKNS1_16BufferDescriptorEPfS7_S8_S7_S8_S7_iPKNS1_10PatchCoordEPKNS1_10PatchArrayEPKiPKNS1_10PatchParamE(ptr noundef %0, ptr noundef nonnull align 4 dereferenceable(12) %1, ptr noundef %2, ptr noundef nonnull align 4 dereferenceable(12) %3, ptr noundef %4, ptr noundef nonnull align 4 dereferenceable(12) %5, ptr noundef %6, ptr noundef nonnull align 4 dereferenceable(12) %7, i32 noundef %8, ptr noundef %9, ptr noundef %10, ptr noundef %11, ptr noundef %12) #4 align 2 {
  %14 = alloca i1, align 1
  %15 = alloca ptr, align 8
  %16 = alloca ptr, align 8
  %17 = alloca ptr, align 8
  %18 = alloca ptr, align 8
  %19 = alloca ptr, align 8
  %20 = alloca ptr, align 8
  %21 = alloca ptr, align 8
  %22 = alloca ptr, align 8
  %23 = alloca i32, align 4
  %24 = alloca ptr, align 8
  %25 = alloca ptr, align 8
  %26 = alloca ptr, align 8
  %27 = alloca ptr, align 8
  %28 = alloca %"struct.OpenSubdiv::v3_6_0::Osd::BufferDescriptor", align 4
  %29 = alloca %"struct.OpenSubdiv::v3_6_0::Osd::BufferDescriptor", align 4
  %30 = alloca %"struct.OpenSubdiv::v3_6_0::Osd::BufferDescriptor", align 4
  store ptr %0, ptr %15, align 8
  store ptr %1, ptr %16, align 8
  store ptr %2, ptr %17, align 8
  store ptr %3, ptr %18, align 8
  store ptr %4, ptr %19, align 8
  store ptr %5, ptr %20, align 8
  store ptr %6, ptr %21, align 8
  store ptr %7, ptr %22, align 8
  store i32 %8, ptr %23, align 4
  store ptr %9, ptr %24, align 8
  store ptr %10, ptr %25, align 8
  store ptr %11, ptr %26, align 8
  store ptr %12, ptr %27, align 8
  %31 = load ptr, ptr %16, align 8
  %32 = getelementptr inbounds nuw %"struct.OpenSubdiv::v3_6_0::Osd::BufferDescriptor", ptr %31, i32 0, i32 1
  %33 = load i32, ptr %32, align 4
  %34 = load ptr, ptr %18, align 8
  %35 = getelementptr inbounds nuw %"struct.OpenSubdiv::v3_6_0::Osd::BufferDescriptor", ptr %34, i32 0, i32 1
  %36 = load i32, ptr %35, align 4
  %37 = icmp ne i32 %33, %36
  br i1 %37, label %38, label %39

38:                                               ; preds = %13
  store i1 false, ptr %14, align 1
  br label %53

39:                                               ; preds = %13
  %40 = load ptr, ptr %15, align 8
  %41 = load ptr, ptr %16, align 8
  %42 = load ptr, ptr %17, align 8
  %43 = load ptr, ptr %18, align 8
  %44 = load ptr, ptr %19, align 8
  %45 = load ptr, ptr %20, align 8
  %46 = load ptr, ptr %21, align 8
  %47 = load ptr, ptr %22, align 8
  call void @_ZN10OpenSubdiv6v3_6_03Osd16BufferDescriptorC2Ev(ptr noundef nonnull align 4 dereferenceable(12) %28)
  call void @_ZN10OpenSubdiv6v3_6_03Osd16BufferDescriptorC2Ev(ptr noundef nonnull align 4 dereferenceable(12) %29)
  call void @_ZN10OpenSubdiv6v3_6_03Osd16BufferDescriptorC2Ev(ptr noundef nonnull align 4 dereferenceable(12) %30)
  %48 = load i32, ptr %23, align 4
  %49 = load ptr, ptr %24, align 8
  %50 = load ptr, ptr %25, align 8
  %51 = load ptr, ptr %26, align 8
  %52 = load ptr, ptr %27, align 8
  call void @_ZN10OpenSubdiv6v3_6_03Osd14TbbEvalPatchesEPKfRKNS1_16BufferDescriptorEPfS6_S7_S6_S7_S6_S7_S6_S7_S6_S7_S6_iPKNS1_10PatchCoordEPKNS1_10PatchArrayEPKiPKNS1_10PatchParamE(ptr noundef %40, ptr noundef nonnull align 4 dereferenceable(12) %41, ptr noundef %42, ptr noundef nonnull align 4 dereferenceable(12) %43, ptr noundef %44, ptr noundef nonnull align 4 dereferenceable(12) %45, ptr noundef %46, ptr noundef nonnull align 4 dereferenceable(12) %47, ptr noundef null, ptr noundef nonnull align 4 dereferenceable(12) %28, ptr noundef null, ptr noundef nonnull align 4 dereferenceable(12) %29, ptr noundef null, ptr noundef nonnull align 4 dereferenceable(12) %30, i32 noundef %48, ptr noundef %49, ptr noundef %50, ptr noundef %51, ptr noundef %52)
  store i1 true, ptr %14, align 1
  br label %53

53:                                               ; preds = %39, %38
  %54 = load i1, ptr %14, align 1
  ret i1 %54
}