; Function Attrs: mustprogress uwtable
define noundef zeroext i1 @_ZN10OpenSubdiv6v3_6_03Osd12TbbEvaluator11EvalPatchesEPKfRKNS1_16BufferDescriptorEPfS7_S8_S7_S8_S7_iPKNS1_10PatchCoordEPKNS1_10PatchArrayEPKiPKNS1_10PatchParamE(ptr noundef %0, ptr noundef nonnull align 4 dereferenceable(12) %1, ptr noundef %2, ptr noundef nonnull align 4 dereferenceable(12) %3, ptr noundef %4, ptr noundef nonnull align 4 dereferenceable(12) %5, ptr noundef %6, ptr noundef nonnull align 4 dereferenceable(12) %7, i32 noundef %8, ptr noundef %9, ptr noundef %10, ptr noundef %11, ptr noundef %12) local_unnamed_addr #3 align 2 {
  %14 = alloca %"struct.OpenSubdiv::v3_6_0::Osd::BufferDescriptor", align 4
  %15 = alloca %"struct.OpenSubdiv::v3_6_0::Osd::BufferDescriptor", align 4
  %16 = alloca %"struct.OpenSubdiv::v3_6_0::Osd::BufferDescriptor", align 4
  %17 = getelementptr inbounds nuw i8, ptr %1, i64 4
  %18 = load i32, ptr %17, align 4
  %19 = getelementptr inbounds nuw i8, ptr %3, i64 4
  %20 = load i32, ptr %19, align 4
  %.not = icmp eq i32 %18, %20
  br i1 %.not, label %21, label %28

21:                                               ; preds = %13
  store i32 0, ptr %14, align 4
  %22 = getelementptr inbounds nuw i8, ptr %14, i64 4
  store i32 0, ptr %22, align 4
  %23 = getelementptr inbounds nuw i8, ptr %14, i64 8
  store i32 0, ptr %23, align 4
  store i32 0, ptr %15, align 4
  %24 = getelementptr inbounds nuw i8, ptr %15, i64 4
  store i32 0, ptr %24, align 4
  %25 = getelementptr inbounds nuw i8, ptr %15, i64 8
  store i32 0, ptr %25, align 4
  store i32 0, ptr %16, align 4
  %26 = getelementptr inbounds nuw i8, ptr %16, i64 4
  store i32 0, ptr %26, align 4
  %27 = getelementptr inbounds nuw i8, ptr %16, i64 8
  store i32 0, ptr %27, align 4
  call void @_ZN10OpenSubdiv6v3_6_03Osd14TbbEvalPatchesEPKfRKNS1_16BufferDescriptorEPfS6_S7_S6_S7_S6_S7_S6_S7_S6_S7_S6_iPKNS1_10PatchCoordEPKNS1_10PatchArrayEPKiPKNS1_10PatchParamE(ptr noundef %0, ptr noundef nonnull align 4 dereferenceable(12) %1, ptr noundef %2, ptr noundef nonnull align 4 dereferenceable(12) %3, ptr noundef %4, ptr noundef nonnull align 4 dereferenceable(12) %5, ptr noundef %6, ptr noundef nonnull align 4 dereferenceable(12) %7, ptr noundef null, ptr noundef nonnull align 4 dereferenceable(12) %14, ptr noundef null, ptr noundef nonnull align 4 dereferenceable(12) %15, ptr noundef null, ptr noundef nonnull align 4 dereferenceable(12) %16, i32 noundef %8, ptr noundef %9, ptr noundef %10, ptr noundef %11, ptr noundef %12)
  br label %28

28:                                               ; preds = %13, %21
  ret i1 %.not
}